; Function Attrs: mustprogress nofree norecurse nosync nounwind willreturn memory(argmem: readwrite) uwtable
define hidden noundef signext i8 @nfaExecMcClellan16_expandState(ptr noundef readonly captures(none) %0, ptr noundef writeonly captures(none) initializes((0, 2)) %1, ptr noundef readonly captures(none) %2, i64 noundef %3, i8 noundef zeroext %4) local_unnamed_addr #5 {
  %6 = load i16, ptr %2, align 1
  store i16 %6, ptr %1, align 2
  %7 = getelementptr inbounds nuw i8, ptr %0, i64 99
  %8 = load i8, ptr %7, align 1
  %.not = icmp eq i8 %8, 0
  br i1 %.not, label %13, label %9

9:                                                ; preds = %5
  %10 = getelementptr inbounds nuw i8, ptr %2, i64 2
  %11 = load i16, ptr %10, align 1
  %12 = getelementptr inbounds nuw i8, ptr %1, i64 2
  store i16 %11, ptr %12, align 2
  br label %13

13:                                               ; preds = %9, %5
  ret i8 0
}